; Function Attrs: nofree norecurse nosync nounwind memory(readwrite, inaccessiblemem: none) uwtable
define internal void @ff_tx_fft64_ns_int32_c(ptr readnone captures(none) %0, ptr noundef initializes((0, 128)) %1, ptr noundef readonly captures(none) %2, i64 %3) #10 {
  tail call void @ff_tx_fft16_ns_int32_c(ptr readnone poison, ptr noundef %1, ptr noundef readonly %2, i64 poison)
  %5 = getelementptr inbounds nuw i8, ptr %1, i64 128
  %6 = getelementptr inbounds nuw i8, ptr %2, i64 128
  tail call void @ff_tx_fft8_ns_int32_c(ptr readnone poison, ptr noundef nonnull %5, ptr noundef nonnull readonly %6, i64 poison)
  %7 = getelementptr inbounds nuw i8, ptr %1, i64 192
  %8 = getelementptr inbounds nuw i8, ptr %2, i64 192
  tail call void @ff_tx_fft8_ns_int32_c(ptr readnone poison, ptr noundef nonnull %7, ptr noundef nonnull readonly %8, i64 poison)
  tail call fastcc void @ff_tx_fft_sr_combine_int32_c(ptr noundef %1, ptr noundef nonnull @ff_tx_tab_32_int32, i32 noundef 4)
  %9 = getelementptr inbounds nuw i8, ptr %1, i64 256
  %10 = getelementptr inbounds nuw i8, ptr %2, i64 256
  tail call void @ff_tx_fft16_ns_int32_c(ptr poison, ptr noundef nonnull %9, ptr noundef nonnull %10, i64 poison)
  %11 = getelementptr inbounds nuw i8, ptr %1, i64 384
  %12 = getelementptr inbounds nuw i8, ptr %2, i64 384
  tail call void @ff_tx_fft16_ns_int32_c(ptr poison, ptr noundef nonnull %11, ptr noundef nonnull %12, i64 poison)
  tail call fastcc void @ff_tx_fft_sr_combine_int32_c(ptr noundef %1, ptr noundef nonnull @ff_tx_tab_64_int32, i32 noundef 8)
  ret void
}